GAS LISTING C:\Users\aptsi\AppData\Local\Temp\ccnMgLUg.s 			page 1


   1              		.file	"GaloisLFSRinC.c"
   2              		.text
   3              	Ltext0:
   4              		.cfi_sections	.debug_frame
   5              		.globl	_GaloisLFSRinC
   7              	_GaloisLFSRinC:
   8              	LFB10:
   9              		.file 1 "D:/SDSU/OneDrive - San Diego State University (SDSU.EDU)/Semesters/Spring 2018/COMPE 271/
   1:D:/SDSU/OneDrive - San Diego State University (SDSU.EDU)/Semesters/Spring 2018/COMPE 271/new f/Vernam Again\GaloisLFSRinC.c **** # include <stdint.h>
   2:D:/SDSU/OneDrive - San Diego State University (SDSU.EDU)/Semesters/Spring 2018/COMPE 271/new f/Vernam Again\GaloisLFSRinC.c **** # include <stdio.h>
   3:D:/SDSU/OneDrive - San Diego State University (SDSU.EDU)/Semesters/Spring 2018/COMPE 271/new f/Vernam Again\GaloisLFSRinC.c **** 
   4:D:/SDSU/OneDrive - San Diego State University (SDSU.EDU)/Semesters/Spring 2018/COMPE 271/new f/Vernam Again\GaloisLFSRinC.c **** extern int GaloisLFSRinC(unsigned int seedIN, unsigned int charCount, char key[])
   5:D:/SDSU/OneDrive - San Diego State University (SDSU.EDU)/Semesters/Spring 2018/COMPE 271/new f/Vernam Again\GaloisLFSRinC.c **** {
  10              		.loc 1 5 0
  11              		.cfi_startproc
  12 0000 55       		pushl	%ebp
  13              		.cfi_def_cfa_offset 8
  14              		.cfi_offset 5, -8
  15 0001 89E5     		movl	%esp, %ebp
  16              		.cfi_def_cfa_register 5
  17 0003 83EC38   		subl	$56, %esp
   6:D:/SDSU/OneDrive - San Diego State University (SDSU.EDU)/Semesters/Spring 2018/COMPE 271/new f/Vernam Again\GaloisLFSRinC.c ****     unsigned int startingState = seedIN;  /* this is a starting state (seed) of the LFSR */
  18              		.loc 1 6 0
  19 0006 8B4508   		movl	8(%ebp), %eax
  20 0009 8945E8   		movl	%eax, -24(%ebp)
   7:D:/SDSU/OneDrive - San Diego State University (SDSU.EDU)/Semesters/Spring 2018/COMPE 271/new f/Vernam Again\GaloisLFSRinC.c ****     unsigned int LFSR_STATE = seedIN;  /* LFSR_STATE will be updated per Galois LFSR technique */
  21              		.loc 1 7 0
  22 000c 8B4508   		movl	8(%ebp), %eax
  23 000f 8945F4   		movl	%eax, -12(%ebp)
   8:D:/SDSU/OneDrive - San Diego State University (SDSU.EDU)/Semesters/Spring 2018/COMPE 271/new f/Vernam Again\GaloisLFSRinC.c ****     unsigned period = 0;  /* measure period */
  24              		.loc 1 8 0
  25 0012 C745F000 		movl	$0, -16(%ebp)
  25      000000
   9:D:/SDSU/OneDrive - San Diego State University (SDSU.EDU)/Semesters/Spring 2018/COMPE 271/new f/Vernam Again\GaloisLFSRinC.c ****     char* keyPtr = key;
  26              		.loc 1 9 0
  27 0019 8B4510   		movl	16(%ebp), %eax
  28 001c 8945EC   		movl	%eax, -20(%ebp)
  29              	L5:
  30              	LBB2:
  10:D:/SDSU/OneDrive - San Diego State University (SDSU.EDU)/Semesters/Spring 2018/COMPE 271/new f/Vernam Again\GaloisLFSRinC.c **** 
  11:D:/SDSU/OneDrive - San Diego State University (SDSU.EDU)/Semesters/Spring 2018/COMPE 271/new f/Vernam Again\GaloisLFSRinC.c ****     do {
  12:D:/SDSU/OneDrive - San Diego State University (SDSU.EDU)/Semesters/Spring 2018/COMPE 271/new f/Vernam Again\GaloisLFSRinC.c ****         unsigned lsb = LFSR_STATE & 1;   /* generating least significant bit (LSB) (i.e. output). *
  31              		.loc 1 12 0
  32 001f 8B45F4   		movl	-12(%ebp), %eax
  33 0022 83E001   		andl	$1, %eax
  34 0025 8945E4   		movl	%eax, -28(%ebp)
  13:D:/SDSU/OneDrive - San Diego State University (SDSU.EDU)/Semesters/Spring 2018/COMPE 271/new f/Vernam Again\GaloisLFSRinC.c ****         LFSR_STATE >>= 1;                /* apply shift. */
  35              		.loc 1 13 0
  36 0028 D16DF4   		shrl	-12(%ebp)
  14:D:/SDSU/OneDrive - San Diego State University (SDSU.EDU)/Semesters/Spring 2018/COMPE 271/new f/Vernam Again\GaloisLFSRinC.c ****         if (lsb)                         /* taps are applied iff LSB is 1. */
  37              		.loc 1 14 0
  38 002b 837DE400 		cmpl	$0, -28(%ebp)
  39 002f 7407     		je	L2
  15:D:/SDSU/OneDrive - San Diego State University (SDSU.EDU)/Semesters/Spring 2018/COMPE 271/new f/Vernam Again\GaloisLFSRinC.c ****             LFSR_STATE ^= 0XA3000000u;   /* taps are: 32, 30, 26, 25. binary equivalent: 1010 0011 
  40              		.loc 1 15 0
  41 0031 8175F400 		xorl	$-1560281088, -12(%ebp)
  41      0000A3
GAS LISTING C:\Users\aptsi\AppData\Local\Temp\ccnMgLUg.s 			page 2


  42              	L2:
  16:D:/SDSU/OneDrive - San Diego State University (SDSU.EDU)/Semesters/Spring 2018/COMPE 271/new f/Vernam Again\GaloisLFSRinC.c ****         ++period;
  43              		.loc 1 16 0
  44 0038 8345F001 		addl	$1, -16(%ebp)
  17:D:/SDSU/OneDrive - San Diego State University (SDSU.EDU)/Semesters/Spring 2018/COMPE 271/new f/Vernam Again\GaloisLFSRinC.c ****         keyPtr += sprintfkeys(keyPtr, LFSR_STATE);
  45              		.loc 1 17 0
  46 003c 8B45F4   		movl	-12(%ebp), %eax
  47 003f 89442404 		movl	%eax, 4(%esp)
  48 0043 8B45EC   		movl	-20(%ebp), %eax
  49 0046 890424   		movl	%eax, (%esp)
  50 0049 E8000000 		call	_sprintfkeys
  50      00
  51 004e 0145EC   		addl	%eax, -20(%ebp)
  18:D:/SDSU/OneDrive - San Diego State University (SDSU.EDU)/Semesters/Spring 2018/COMPE 271/new f/Vernam Again\GaloisLFSRinC.c ****         if(4*period >= charCount)
  52              		.loc 1 18 0
  53 0051 8B45F0   		movl	-16(%ebp), %eax
  54 0054 C1E002   		sall	$2, %eax
  55 0057 3B450C   		cmpl	12(%ebp), %eax
  56 005a 7202     		jb	L3
  19:D:/SDSU/OneDrive - San Diego State University (SDSU.EDU)/Semesters/Spring 2018/COMPE 271/new f/Vernam Again\GaloisLFSRinC.c ****             break;
  57              		.loc 1 19 0
  58 005c EB08     		jmp	L4
  59              	L3:
  60              	LBE2:
  20:D:/SDSU/OneDrive - San Diego State University (SDSU.EDU)/Semesters/Spring 2018/COMPE 271/new f/Vernam Again\GaloisLFSRinC.c ****     } while (LFSR_STATE != startingState);
  61              		.loc 1 20 0
  62 005e 8B45F4   		movl	-12(%ebp), %eax
  63 0061 3B45E8   		cmpl	-24(%ebp), %eax
  64 0064 75B9     		jne	L5
  65              	L4:
  21:D:/SDSU/OneDrive - San Diego State University (SDSU.EDU)/Semesters/Spring 2018/COMPE 271/new f/Vernam Again\GaloisLFSRinC.c ****     return 1;
  66              		.loc 1 21 0
  67 0066 B8010000 		movl	$1, %eax
  67      00
  22:D:/SDSU/OneDrive - San Diego State University (SDSU.EDU)/Semesters/Spring 2018/COMPE 271/new f/Vernam Again\GaloisLFSRinC.c **** }
  68              		.loc 1 22 0
  69 006b C9       		leave
  70              		.cfi_restore 5
  71              		.cfi_def_cfa 4, 4
  72 006c C3       		ret
  73              		.cfi_endproc
  74              	LFE10:
  75              	Letext0:
  76              		.file 2 "C:/Program Files (x86)/CodeBlocks/MinGW/include/stdio.h"
  77 006d 909090   		.section	.debug_info,"dr"
  78              	Ldebug_info0:
  79 0000 DB020000 		.long	0x2db
  80 0004 0400     		.word	0x4
  81 0006 00000000 		.secrel32	Ldebug_abbrev0
  82 000a 04       		.byte	0x4
  83 000b 01       		.uleb128 0x1
  84 000c 474E5520 		.ascii "GNU C 4.9.2 -mtune=generic -march=pentiumpro -g -std=c99\0"
  84      4320342E 
  84      392E3220 
  84      2D6D7475 
  84      6E653D67 
  85 0045 01       		.byte	0x1
GAS LISTING C:\Users\aptsi\AppData\Local\Temp\ccnMgLUg.s 			page 3


  86 0046 443A5C53 		.ascii "D:\\SDSU\\OneDrive - San Diego State University (SDSU.EDU)\\Semesters\\Spring 2018\\COMPE 
  86      4453555C 
  86      4F6E6544 
  86      72697665 
  86      202D2053 
  87 00c2 00000000 		.long	Ltext0
  88 00c6 6D000000 		.long	Letext0-Ltext0
  89 00ca 00000000 		.secrel32	Ldebug_line0
  90 00ce 02       		.uleb128 0x2
  91 00cf 02       		.byte	0x2
  92 00d0 07       		.byte	0x7
  93 00d1 73686F72 		.ascii "short unsigned int\0"
  93      7420756E 
  93      7369676E 
  93      65642069 
  93      6E7400
  94 00e4 02       		.uleb128 0x2
  95 00e5 01       		.byte	0x1
  96 00e6 06       		.byte	0x6
  97 00e7 7369676E 		.ascii "signed char\0"
  97      65642063 
  97      68617200 
  98 00f3 02       		.uleb128 0x2
  99 00f4 01       		.byte	0x1
 100 00f5 08       		.byte	0x8
 101 00f6 756E7369 		.ascii "unsigned char\0"
 101      676E6564 
 101      20636861 
 101      7200
 102 0104 02       		.uleb128 0x2
 103 0105 02       		.byte	0x2
 104 0106 05       		.byte	0x5
 105 0107 73686F72 		.ascii "short int\0"
 105      7420696E 
 105      7400
 106 0111 02       		.uleb128 0x2
 107 0112 04       		.byte	0x4
 108 0113 05       		.byte	0x5
 109 0114 696E7400 		.ascii "int\0"
 110 0118 02       		.uleb128 0x2
 111 0119 04       		.byte	0x4
 112 011a 07       		.byte	0x7
 113 011b 756E7369 		.ascii "unsigned int\0"
 113      676E6564 
 113      20696E74 
 113      00
 114 0128 02       		.uleb128 0x2
 115 0129 08       		.byte	0x8
 116 012a 05       		.byte	0x5
 117 012b 6C6F6E67 		.ascii "long long int\0"
 117      206C6F6E 
 117      6720696E 
 117      7400
 118 0139 02       		.uleb128 0x2
 119 013a 08       		.byte	0x8
 120 013b 07       		.byte	0x7
 121 013c 6C6F6E67 		.ascii "long long unsigned int\0"
GAS LISTING C:\Users\aptsi\AppData\Local\Temp\ccnMgLUg.s 			page 4


 121      206C6F6E 
 121      6720756E 
 121      7369676E 
 121      65642069 
 122 0153 02       		.uleb128 0x2
 123 0154 01       		.byte	0x1
 124 0155 06       		.byte	0x6
 125 0156 63686172 		.ascii "char\0"
 125      00
 126 015b 03       		.uleb128 0x3
 127 015c 5F696F62 		.ascii "_iobuf\0"
 127      756600
 128 0163 20       		.byte	0x20
 129 0164 02       		.byte	0x2
 130 0165 81       		.byte	0x81
 131 0166 E2010000 		.long	0x1e2
 132 016a 04       		.uleb128 0x4
 133 016b 5F707472 		.ascii "_ptr\0"
 133      00
 134 0170 02       		.byte	0x2
 135 0171 83       		.byte	0x83
 136 0172 E2010000 		.long	0x1e2
 137 0176 00       		.byte	0
 138 0177 04       		.uleb128 0x4
 139 0178 5F636E74 		.ascii "_cnt\0"
 139      00
 140 017d 02       		.byte	0x2
 141 017e 84       		.byte	0x84
 142 017f 11010000 		.long	0x111
 143 0183 04       		.byte	0x4
 144 0184 04       		.uleb128 0x4
 145 0185 5F626173 		.ascii "_base\0"
 145      6500
 146 018b 02       		.byte	0x2
 147 018c 85       		.byte	0x85
 148 018d E2010000 		.long	0x1e2
 149 0191 08       		.byte	0x8
 150 0192 04       		.uleb128 0x4
 151 0193 5F666C61 		.ascii "_flag\0"
 151      6700
 152 0199 02       		.byte	0x2
 153 019a 86       		.byte	0x86
 154 019b 11010000 		.long	0x111
 155 019f 0C       		.byte	0xc
 156 01a0 04       		.uleb128 0x4
 157 01a1 5F66696C 		.ascii "_file\0"
 157      6500
 158 01a7 02       		.byte	0x2
 159 01a8 87       		.byte	0x87
 160 01a9 11010000 		.long	0x111
 161 01ad 10       		.byte	0x10
 162 01ae 04       		.uleb128 0x4
 163 01af 5F636861 		.ascii "_charbuf\0"
 163      72627566 
 163      00
 164 01b8 02       		.byte	0x2
 165 01b9 88       		.byte	0x88
GAS LISTING C:\Users\aptsi\AppData\Local\Temp\ccnMgLUg.s 			page 5


 166 01ba 11010000 		.long	0x111
 167 01be 14       		.byte	0x14
 168 01bf 04       		.uleb128 0x4
 169 01c0 5F627566 		.ascii "_bufsiz\0"
 169      73697A00 
 170 01c8 02       		.byte	0x2
 171 01c9 89       		.byte	0x89
 172 01ca 11010000 		.long	0x111
 173 01ce 18       		.byte	0x18
 174 01cf 04       		.uleb128 0x4
 175 01d0 5F746D70 		.ascii "_tmpfname\0"
 175      666E616D 
 175      6500
 176 01da 02       		.byte	0x2
 177 01db 8A       		.byte	0x8a
 178 01dc E2010000 		.long	0x1e2
 179 01e0 1C       		.byte	0x1c
 180 01e1 00       		.byte	0
 181 01e2 05       		.uleb128 0x5
 182 01e3 04       		.byte	0x4
 183 01e4 53010000 		.long	0x153
 184 01e8 06       		.uleb128 0x6
 185 01e9 46494C45 		.ascii "FILE\0"
 185      00
 186 01ee 02       		.byte	0x2
 187 01ef 8B       		.byte	0x8b
 188 01f0 5B010000 		.long	0x15b
 189 01f4 07       		.uleb128 0x7
 190 01f5 47616C6F 		.ascii "GaloisLFSRinC\0"
 190      69734C46 
 190      5352696E 
 190      4300
 191 0203 01       		.byte	0x1
 192 0204 04       		.byte	0x4
 193 0205 11010000 		.long	0x111
 194 0209 00000000 		.long	LFB10
 195 020d 6D000000 		.long	LFE10-LFB10
 196 0211 01       		.uleb128 0x1
 197 0212 9C       		.byte	0x9c
 198 0213 C7020000 		.long	0x2c7
 199 0217 08       		.uleb128 0x8
 200 0218 73656564 		.ascii "seedIN\0"
 200      494E00
 201 021f 01       		.byte	0x1
 202 0220 04       		.byte	0x4
 203 0221 18010000 		.long	0x118
 204 0225 02       		.uleb128 0x2
 205 0226 91       		.byte	0x91
 206 0227 00       		.sleb128 0
 207 0228 08       		.uleb128 0x8
 208 0229 63686172 		.ascii "charCount\0"
 208      436F756E 
 208      7400
 209 0233 01       		.byte	0x1
 210 0234 04       		.byte	0x4
 211 0235 18010000 		.long	0x118
 212 0239 02       		.uleb128 0x2
GAS LISTING C:\Users\aptsi\AppData\Local\Temp\ccnMgLUg.s 			page 6


 213 023a 91       		.byte	0x91
 214 023b 04       		.sleb128 4
 215 023c 08       		.uleb128 0x8
 216 023d 6B657900 		.ascii "key\0"
 217 0241 01       		.byte	0x1
 218 0242 04       		.byte	0x4
 219 0243 E2010000 		.long	0x1e2
 220 0247 02       		.uleb128 0x2
 221 0248 91       		.byte	0x91
 222 0249 08       		.sleb128 8
 223 024a 09       		.uleb128 0x9
 224 024b 73746172 		.ascii "startingState\0"
 224      74696E67 
 224      53746174 
 224      6500
 225 0259 01       		.byte	0x1
 226 025a 06       		.byte	0x6
 227 025b 18010000 		.long	0x118
 228 025f 02       		.uleb128 0x2
 229 0260 91       		.byte	0x91
 230 0261 60       		.sleb128 -32
 231 0262 09       		.uleb128 0x9
 232 0263 4C465352 		.ascii "LFSR_STATE\0"
 232      5F535441 
 232      544500
 233 026e 01       		.byte	0x1
 234 026f 07       		.byte	0x7
 235 0270 18010000 		.long	0x118
 236 0274 02       		.uleb128 0x2
 237 0275 91       		.byte	0x91
 238 0276 6C       		.sleb128 -20
 239 0277 09       		.uleb128 0x9
 240 0278 70657269 		.ascii "period\0"
 240      6F6400
 241 027f 01       		.byte	0x1
 242 0280 08       		.byte	0x8
 243 0281 18010000 		.long	0x118
 244 0285 02       		.uleb128 0x2
 245 0286 91       		.byte	0x91
 246 0287 68       		.sleb128 -24
 247 0288 09       		.uleb128 0x9
 248 0289 6B657950 		.ascii "keyPtr\0"
 248      747200
 249 0290 01       		.byte	0x1
 250 0291 09       		.byte	0x9
 251 0292 E2010000 		.long	0x1e2
 252 0296 02       		.uleb128 0x2
 253 0297 91       		.byte	0x91
 254 0298 64       		.sleb128 -28
 255 0299 0A       		.uleb128 0xa
 256 029a 1F000000 		.long	LBB2
 257 029e 3F000000 		.long	LBE2-LBB2
 258 02a2 09       		.uleb128 0x9
 259 02a3 6C736200 		.ascii "lsb\0"
 260 02a7 01       		.byte	0x1
 261 02a8 0C       		.byte	0xc
 262 02a9 18010000 		.long	0x118
GAS LISTING C:\Users\aptsi\AppData\Local\Temp\ccnMgLUg.s 			page 7


 263 02ad 02       		.uleb128 0x2
 264 02ae 91       		.byte	0x91
 265 02af 5C       		.sleb128 -36
 266 02b0 0B       		.uleb128 0xb
 267 02b1 73707269 		.ascii "sprintfkeys\0"
 267      6E74666B 
 267      65797300 
 268 02bd 01       		.byte	0x1
 269 02be 11       		.byte	0x11
 270 02bf 11010000 		.long	0x111
 271 02c3 0C       		.uleb128 0xc
 272 02c4 00       		.byte	0
 273 02c5 00       		.byte	0
 274 02c6 00       		.byte	0
 275 02c7 0D       		.uleb128 0xd
 276 02c8 E8010000 		.long	0x1e8
 277 02cc D2020000 		.long	0x2d2
 278 02d0 0E       		.uleb128 0xe
 279 02d1 00       		.byte	0
 280 02d2 0F       		.uleb128 0xf
 281 02d3 5F696F62 		.ascii "_iob\0"
 281      00
 282 02d8 02       		.byte	0x2
 283 02d9 9A       		.byte	0x9a
 284 02da C7020000 		.long	0x2c7
 285 02de 00       		.byte	0
 286              		.section	.debug_abbrev,"dr"
 287              	Ldebug_abbrev0:
 288 0000 01       		.uleb128 0x1
 289 0001 11       		.uleb128 0x11
 290 0002 01       		.byte	0x1
 291 0003 25       		.uleb128 0x25
 292 0004 08       		.uleb128 0x8
 293 0005 13       		.uleb128 0x13
 294 0006 0B       		.uleb128 0xb
 295 0007 03       		.uleb128 0x3
 296 0008 08       		.uleb128 0x8
 297 0009 11       		.uleb128 0x11
 298 000a 01       		.uleb128 0x1
 299 000b 12       		.uleb128 0x12
 300 000c 06       		.uleb128 0x6
 301 000d 10       		.uleb128 0x10
 302 000e 17       		.uleb128 0x17
 303 000f 00       		.byte	0
 304 0010 00       		.byte	0
 305 0011 02       		.uleb128 0x2
 306 0012 24       		.uleb128 0x24
 307 0013 00       		.byte	0
 308 0014 0B       		.uleb128 0xb
 309 0015 0B       		.uleb128 0xb
 310 0016 3E       		.uleb128 0x3e
 311 0017 0B       		.uleb128 0xb
 312 0018 03       		.uleb128 0x3
 313 0019 08       		.uleb128 0x8
 314 001a 00       		.byte	0
 315 001b 00       		.byte	0
 316 001c 03       		.uleb128 0x3
GAS LISTING C:\Users\aptsi\AppData\Local\Temp\ccnMgLUg.s 			page 8


 317 001d 13       		.uleb128 0x13
 318 001e 01       		.byte	0x1
 319 001f 03       		.uleb128 0x3
 320 0020 08       		.uleb128 0x8
 321 0021 0B       		.uleb128 0xb
 322 0022 0B       		.uleb128 0xb
 323 0023 3A       		.uleb128 0x3a
 324 0024 0B       		.uleb128 0xb
 325 0025 3B       		.uleb128 0x3b
 326 0026 0B       		.uleb128 0xb
 327 0027 01       		.uleb128 0x1
 328 0028 13       		.uleb128 0x13
 329 0029 00       		.byte	0
 330 002a 00       		.byte	0
 331 002b 04       		.uleb128 0x4
 332 002c 0D       		.uleb128 0xd
 333 002d 00       		.byte	0
 334 002e 03       		.uleb128 0x3
 335 002f 08       		.uleb128 0x8
 336 0030 3A       		.uleb128 0x3a
 337 0031 0B       		.uleb128 0xb
 338 0032 3B       		.uleb128 0x3b
 339 0033 0B       		.uleb128 0xb
 340 0034 49       		.uleb128 0x49
 341 0035 13       		.uleb128 0x13
 342 0036 38       		.uleb128 0x38
 343 0037 0B       		.uleb128 0xb
 344 0038 00       		.byte	0
 345 0039 00       		.byte	0
 346 003a 05       		.uleb128 0x5
 347 003b 0F       		.uleb128 0xf
 348 003c 00       		.byte	0
 349 003d 0B       		.uleb128 0xb
 350 003e 0B       		.uleb128 0xb
 351 003f 49       		.uleb128 0x49
 352 0040 13       		.uleb128 0x13
 353 0041 00       		.byte	0
 354 0042 00       		.byte	0
 355 0043 06       		.uleb128 0x6
 356 0044 16       		.uleb128 0x16
 357 0045 00       		.byte	0
 358 0046 03       		.uleb128 0x3
 359 0047 08       		.uleb128 0x8
 360 0048 3A       		.uleb128 0x3a
 361 0049 0B       		.uleb128 0xb
 362 004a 3B       		.uleb128 0x3b
 363 004b 0B       		.uleb128 0xb
 364 004c 49       		.uleb128 0x49
 365 004d 13       		.uleb128 0x13
 366 004e 00       		.byte	0
 367 004f 00       		.byte	0
 368 0050 07       		.uleb128 0x7
 369 0051 2E       		.uleb128 0x2e
 370 0052 01       		.byte	0x1
 371 0053 3F       		.uleb128 0x3f
 372 0054 19       		.uleb128 0x19
 373 0055 03       		.uleb128 0x3
GAS LISTING C:\Users\aptsi\AppData\Local\Temp\ccnMgLUg.s 			page 9


 374 0056 08       		.uleb128 0x8
 375 0057 3A       		.uleb128 0x3a
 376 0058 0B       		.uleb128 0xb
 377 0059 3B       		.uleb128 0x3b
 378 005a 0B       		.uleb128 0xb
 379 005b 27       		.uleb128 0x27
 380 005c 19       		.uleb128 0x19
 381 005d 49       		.uleb128 0x49
 382 005e 13       		.uleb128 0x13
 383 005f 11       		.uleb128 0x11
 384 0060 01       		.uleb128 0x1
 385 0061 12       		.uleb128 0x12
 386 0062 06       		.uleb128 0x6
 387 0063 40       		.uleb128 0x40
 388 0064 18       		.uleb128 0x18
 389 0065 9642     		.uleb128 0x2116
 390 0067 19       		.uleb128 0x19
 391 0068 01       		.uleb128 0x1
 392 0069 13       		.uleb128 0x13
 393 006a 00       		.byte	0
 394 006b 00       		.byte	0
 395 006c 08       		.uleb128 0x8
 396 006d 05       		.uleb128 0x5
 397 006e 00       		.byte	0
 398 006f 03       		.uleb128 0x3
 399 0070 08       		.uleb128 0x8
 400 0071 3A       		.uleb128 0x3a
 401 0072 0B       		.uleb128 0xb
 402 0073 3B       		.uleb128 0x3b
 403 0074 0B       		.uleb128 0xb
 404 0075 49       		.uleb128 0x49
 405 0076 13       		.uleb128 0x13
 406 0077 02       		.uleb128 0x2
 407 0078 18       		.uleb128 0x18
 408 0079 00       		.byte	0
 409 007a 00       		.byte	0
 410 007b 09       		.uleb128 0x9
 411 007c 34       		.uleb128 0x34
 412 007d 00       		.byte	0
 413 007e 03       		.uleb128 0x3
 414 007f 08       		.uleb128 0x8
 415 0080 3A       		.uleb128 0x3a
 416 0081 0B       		.uleb128 0xb
 417 0082 3B       		.uleb128 0x3b
 418 0083 0B       		.uleb128 0xb
 419 0084 49       		.uleb128 0x49
 420 0085 13       		.uleb128 0x13
 421 0086 02       		.uleb128 0x2
 422 0087 18       		.uleb128 0x18
 423 0088 00       		.byte	0
 424 0089 00       		.byte	0
 425 008a 0A       		.uleb128 0xa
 426 008b 0B       		.uleb128 0xb
 427 008c 01       		.byte	0x1
 428 008d 11       		.uleb128 0x11
 429 008e 01       		.uleb128 0x1
 430 008f 12       		.uleb128 0x12
GAS LISTING C:\Users\aptsi\AppData\Local\Temp\ccnMgLUg.s 			page 10


 431 0090 06       		.uleb128 0x6
 432 0091 00       		.byte	0
 433 0092 00       		.byte	0
 434 0093 0B       		.uleb128 0xb
 435 0094 2E       		.uleb128 0x2e
 436 0095 01       		.byte	0x1
 437 0096 3F       		.uleb128 0x3f
 438 0097 19       		.uleb128 0x19
 439 0098 03       		.uleb128 0x3
 440 0099 08       		.uleb128 0x8
 441 009a 3A       		.uleb128 0x3a
 442 009b 0B       		.uleb128 0xb
 443 009c 3B       		.uleb128 0x3b
 444 009d 0B       		.uleb128 0xb
 445 009e 49       		.uleb128 0x49
 446 009f 13       		.uleb128 0x13
 447 00a0 3C       		.uleb128 0x3c
 448 00a1 19       		.uleb128 0x19
 449 00a2 00       		.byte	0
 450 00a3 00       		.byte	0
 451 00a4 0C       		.uleb128 0xc
 452 00a5 18       		.uleb128 0x18
 453 00a6 00       		.byte	0
 454 00a7 00       		.byte	0
 455 00a8 00       		.byte	0
 456 00a9 0D       		.uleb128 0xd
 457 00aa 01       		.uleb128 0x1
 458 00ab 01       		.byte	0x1
 459 00ac 49       		.uleb128 0x49
 460 00ad 13       		.uleb128 0x13
 461 00ae 01       		.uleb128 0x1
 462 00af 13       		.uleb128 0x13
 463 00b0 00       		.byte	0
 464 00b1 00       		.byte	0
 465 00b2 0E       		.uleb128 0xe
 466 00b3 21       		.uleb128 0x21
 467 00b4 00       		.byte	0
 468 00b5 00       		.byte	0
 469 00b6 00       		.byte	0
 470 00b7 0F       		.uleb128 0xf
 471 00b8 34       		.uleb128 0x34
 472 00b9 00       		.byte	0
 473 00ba 03       		.uleb128 0x3
 474 00bb 08       		.uleb128 0x8
 475 00bc 3A       		.uleb128 0x3a
 476 00bd 0B       		.uleb128 0xb
 477 00be 3B       		.uleb128 0x3b
 478 00bf 0B       		.uleb128 0xb
 479 00c0 49       		.uleb128 0x49
 480 00c1 13       		.uleb128 0x13
 481 00c2 3F       		.uleb128 0x3f
 482 00c3 19       		.uleb128 0x19
 483 00c4 3C       		.uleb128 0x3c
 484 00c5 19       		.uleb128 0x19
 485 00c6 00       		.byte	0
 486 00c7 00       		.byte	0
 487 00c8 00       		.byte	0
GAS LISTING C:\Users\aptsi\AppData\Local\Temp\ccnMgLUg.s 			page 11


 488              		.section	.debug_aranges,"dr"
 489 0000 1C000000 		.long	0x1c
 490 0004 0200     		.word	0x2
 491 0006 00000000 		.secrel32	Ldebug_info0
 492 000a 04       		.byte	0x4
 493 000b 00       		.byte	0
 494 000c 0000     		.word	0
 495 000e 0000     		.word	0
 496 0010 00000000 		.long	Ltext0
 497 0014 6D000000 		.long	Letext0-Ltext0
 498 0018 00000000 		.long	0
 499 001c 00000000 		.long	0
 500              		.section	.debug_line,"dr"
 501              	Ldebug_line0:
 502 0000 F0000000 		.section	.debug_str,"dr"
 502      0200CD00 
 502      00000101 
 502      FB0E0D00 
 502      01010101 
 503              		.ident	"GCC: (tdm-1) 4.9.2"
GAS LISTING C:\Users\aptsi\AppData\Local\Temp\ccnMgLUg.s 			page 12


DEFINED SYMBOLS
                            *ABS*:00000000 GaloisLFSRinC.c
C:\Users\aptsi\AppData\Local\Temp\ccnMgLUg.s:7      .text:00000000 _GaloisLFSRinC

UNDEFINED SYMBOLS
_sprintfkeys
